target datalayout = "e-m:e-p270:32:32-p271:32:32-p272:64:64-i64:64-i128:128-f80:128-n8:16:32:64-S128"
target triple = "x86_64-pc-linux-gnu"

%struct.PyModuleDef = type { %struct.PyModuleDef_Base, ptr, ptr, i64, ptr, ptr, ptr, ptr, ptr }
%struct.PyModuleDef_Base = type { %struct._object, ptr, i64, ptr }
%struct._object = type { i64, ptr }
%"class.pybind11::error_already_set" = type { %"class.std::exception", %"class.std::shared_ptr" }
%"class.std::exception" = type { ptr }
%"class.std::shared_ptr" = type { %"class.std::__shared_ptr" }
%"class.std::__shared_ptr" = type { ptr, %"class.std::__shared_count" }
%"class.std::__shared_count" = type { ptr }
%"class.pybind11::object" = type { %"class.pybind11::handle" }
%"class.pybind11::handle" = type { ptr }
%"class.pybind11::module_" = type { %"class.pybind11::object" }

@.str.4 = private unnamed_addr constant [5 x i8] c"3.10\00", align 1
@PyExc_ImportError = external global ptr, align 8
@.str.5 = private unnamed_addr constant [109 x i8] c"Python version mismatch: module was compiled for Python %s, but the interpreter version is incompatible: %s.\00", align 1
@.str.6 = private unnamed_addr constant [29 x i8] c"eigen_tensor_avoid_stl_array\00", align 1
@_ZL48pybind11_module_def_eigen_tensor_avoid_stl_array = internal global %struct.PyModuleDef zeroinitializer, align 8
@_ZTISt9exception = external constant ptr
@_ZTIN8pybind1117error_already_setE = linkonce_odr hidden constant { ptr, ptr, ptr } { ptr getelementptr inbounds (ptr, ptr @_ZTVN10__cxxabiv120__si_class_type_infoE, i64 2), ptr @_ZTSN8pybind1117error_already_setE, ptr @_ZTISt9exception }, comdat, align 8
@.str.7 = private unnamed_addr constant [22 x i8] c"initialization failed\00", align 1

; Function Attrs: mustprogress nounwind uwtable
define linkonce_odr hidden noundef ptr @_ZNKSt12__shared_ptrIN8pybind116detail25error_fetch_and_normalizeELN9__gnu_cxx12_Lock_policyE2EE3getEv(ptr noundef nonnull align 8 dereferenceable(16) %0) #0 comdat align 2 {
  %2 = alloca ptr, align 8
  store ptr %0, ptr %2, align 8
  %3 = load ptr, ptr %2, align 8
  %4 = getelementptr inbounds %"class.std::__shared_ptr", ptr %3, i32 0, i32 0
  %5 = load ptr, ptr %4, align 8
  ret ptr %5
}

; Function Attrs: mustprogress nounwind uwtable
define linkonce_odr hidden noundef ptr @_ZNKSt19__shared_ptr_accessIN8pybind116detail25error_fetch_and_normalizeELN9__gnu_cxx12_Lock_policyE2ELb0ELb0EE6_M_getEv(ptr noundef nonnull align 1 dereferenceable(1) %0) #0 comdat align 2 {
  %2 = alloca ptr, align 8
  store ptr %0, ptr %2, align 8
  %3 = load ptr, ptr %2, align 8
  %4 = call noundef ptr @_ZNKSt12__shared_ptrIN8pybind116detail25error_fetch_and_normalizeELN9__gnu_cxx12_Lock_policyE2EE3getEv(ptr noundef nonnull align 8 dereferenceable(16) %3) #16
  ret ptr %4
}

; Function Attrs: mustprogress nounwind uwtable
define linkonce_odr hidden noundef ptr @_ZNKSt19__shared_ptr_accessIN8pybind116detail25error_fetch_and_normalizeELN9__gnu_cxx12_Lock_policyE2ELb0ELb0EEptEv(ptr noundef nonnull align 1 dereferenceable(1) %0) #0 comdat align 2 {
  %2 = alloca ptr, align 8
  store ptr %0, ptr %2, align 8
  %3 = load ptr, ptr %2, align 8
  %4 = call noundef ptr @_ZNKSt19__shared_ptr_accessIN8pybind116detail25error_fetch_and_normalizeELN9__gnu_cxx12_Lock_policyE2ELb0ELb0EE6_M_getEv(ptr noundef nonnull align 1 dereferenceable(1) %3) #16
  ret ptr %4
}

; Function Attrs: mustprogress nounwind uwtable
define linkonce_odr hidden noundef ptr @_ZNK8pybind116handle3ptrEv(ptr noundef nonnull align 8 dereferenceable(8) %0) #0 comdat align 2 {
  %2 = alloca ptr, align 8
  store ptr %0, ptr %2, align 8
  %3 = load ptr, ptr %2, align 8
  %4 = getelementptr inbounds %"class.pybind11::handle", ptr %3, i32 0, i32 0
  %5 = load ptr, ptr %4, align 8
  ret ptr %5
}

; Function Attrs: mustprogress uwtable
define linkonce_odr hidden void @_ZN8pybind1117error_already_set7restoreEv(ptr noundef nonnull align 8 dereferenceable(24) %0) #1 comdat align 2 {
  %2 = alloca ptr, align 8
  store ptr %0, ptr %2, align 8
  %3 = load ptr, ptr %2, align 8
  %4 = getelementptr inbounds %"class.pybind11::error_already_set", ptr %3, i32 0, i32 1
  %5 = call noundef ptr @_ZNKSt19__shared_ptr_accessIN8pybind116detail25error_fetch_and_normalizeELN9__gnu_cxx12_Lock_policyE2ELb0ELb0EEptEv(ptr noundef nonnull align 1 dereferenceable(1) %4) #16
  call void @_ZN8pybind116detail25error_fetch_and_normalize7restoreEv(ptr noundef nonnull align 8 dereferenceable(58) %5)
  ret void
}

; Function Attrs: mustprogress uwtable
define linkonce_odr hidden void @_ZN8pybind119set_errorERKNS_6handleEPKc(ptr noundef nonnull align 8 dereferenceable(8) %0, ptr noundef %1) #1 comdat {
  %3 = alloca ptr, align 8
  %4 = alloca ptr, align 8
  store ptr %0, ptr %3, align 8
  store ptr %1, ptr %4, align 8
  %5 = load ptr, ptr %3, align 8
  %6 = call noundef ptr @_ZNK8pybind116handle3ptrEv(ptr noundef nonnull align 8 dereferenceable(8) %5)
  %7 = load ptr, ptr %4, align 8
  call void @PyErr_SetString(ptr noundef %6, ptr noundef %7)
  ret void
}

; Function Attrs: mustprogress nounwind uwtable
define linkonce_odr hidden void @_ZN8pybind116handleC2IP7_objectTnNSt9enable_ifIXsr6detail25is_pyobj_ptr_or_nullptr_tIT_EE5valueEiE4typeELi0EEES5_(ptr noundef nonnull align 8 dereferenceable(8) %0, ptr noundef %1) unnamed_addr #0 comdat align 2 {
  %3 = alloca ptr, align 8
  %4 = alloca ptr, align 8
  store ptr %0, ptr %3, align 8
  store ptr %1, ptr %4, align 8
  %5 = load ptr, ptr %3, align 8
  %6 = getelementptr inbounds %"class.pybind11::handle", ptr %5, i32 0, i32 0
  %7 = load ptr, ptr %4, align 8
  store ptr %7, ptr %6, align 8
  ret void
}

; Function Attrs: mustprogress uwtable
define linkonce_odr hidden void @_ZN8pybind1110raise_fromERNS_17error_already_setEP7_objectPKc(ptr noundef nonnull align 8 dereferenceable(24) %0, ptr noundef %1, ptr noundef %2) #1 comdat {
  %4 = alloca ptr, align 8
  %5 = alloca ptr, align 8
  %6 = alloca ptr, align 8
  store ptr %0, ptr %4, align 8
  store ptr %1, ptr %5, align 8
  store ptr %2, ptr %6, align 8
  %7 = load ptr, ptr %4, align 8
  call void @_ZN8pybind1117error_already_set7restoreEv(ptr noundef nonnull align 8 dereferenceable(24) %7)
  %8 = load ptr, ptr %5, align 8
  %9 = load ptr, ptr %6, align 8
  call void @_ZN8pybind1110raise_fromEP7_objectPKc(ptr noundef %8, ptr noundef %9)
  ret void
}

; Function Attrs: mustprogress nounwind uwtable
define linkonce_odr hidden noundef nonnull align 8 dereferenceable(8) ptr @_ZN8pybind116handle3ptrEv(ptr noundef nonnull align 8 dereferenceable(8) %0) #0 comdat align 2 {
  %2 = alloca ptr, align 8
  store ptr %0, ptr %2, align 8
  %3 = load ptr, ptr %2, align 8
  %4 = getelementptr inbounds %"class.pybind11::handle", ptr %3, i32 0, i32 0
  ret ptr %4
}

; Function Attrs: mustprogress uwtable
define internal void @_ZL42pybind11_init_eigen_tensor_avoid_stl_arrayRN8pybind117module_E(ptr noundef nonnull align 8 dereferenceable(8) %0) #1 {
  %2 = alloca ptr, align 8
  store ptr %0, ptr %2, align 8
  %3 = load ptr, ptr %2, align 8
  call void @_ZN17eigen_tensor_test11test_moduleERN8pybind117module_E(ptr noundef nonnull align 8 dereferenceable(8) %3)
  ret void
}

; Function Attrs: mustprogress uwtable
define ptr @PyInit_eigen_tensor_avoid_stl_array() #1 personality ptr @__gxx_personality_v0 {
  %1 = alloca ptr, align 8
  %2 = alloca ptr, align 8
  %3 = alloca ptr, align 8
  %4 = alloca i64, align 8
  %5 = alloca %"class.pybind11::module_", align 8
  %6 = alloca ptr, align 8
  %7 = alloca i32, align 4
  %8 = alloca i32, align 4
  %9 = alloca ptr, align 8
  %10 = alloca %"class.pybind11::handle", align 8
  %11 = alloca ptr, align 8
  store ptr @.str.4, ptr %2, align 8
  %12 = call ptr @Py_GetVersion()
  store ptr %12, ptr %3, align 8
  %13 = load ptr, ptr %2, align 8
  %14 = call i64 @strlen(ptr noundef %13) #15
  store i64 %14, ptr %4, align 8
  %15 = load ptr, ptr %3, align 8
  %16 = load ptr, ptr %2, align 8
  %17 = load i64, ptr %4, align 8
  %18 = call i32 @strncmp(ptr noundef %15, ptr noundef %16, i64 noundef %17) #15
  %19 = icmp ne i32 %18, 0
  br i1 %19, label %34, label %20

20:                                               ; preds = %0
  %21 = load ptr, ptr %3, align 8
  %22 = load i64, ptr %4, align 8
  %23 = getelementptr inbounds i8, ptr %21, i64 %22
  %24 = load i8, ptr %23, align 1
  %25 = sext i8 %24 to i32
  %26 = icmp sge i32 %25, 48
  br i1 %26, label %27, label %39

27:                                               ; preds = %20
  %28 = load ptr, ptr %3, align 8
  %29 = load i64, ptr %4, align 8
  %30 = getelementptr inbounds i8, ptr %28, i64 %29
  %31 = load i8, ptr %30, align 1
  %32 = sext i8 %31 to i32
  %33 = icmp sle i32 %32, 57
  br i1 %33, label %34, label %39

34:                                               ; preds = %27, %0
  %35 = load ptr, ptr @PyExc_ImportError, align 8
  %36 = load ptr, ptr %2, align 8
  %37 = load ptr, ptr %3, align 8
  %38 = call ptr (ptr, ptr, ...) @PyErr_Format(ptr noundef %35, ptr noundef @.str.5, ptr noundef %36, ptr noundef %37)
  store ptr null, ptr %1, align 8
  br label %92

39:                                               ; preds = %27, %20
  %40 = call noundef nonnull align 8 dereferenceable(472) ptr @_ZN8pybind116detail13get_internalsEv()
  call void @_ZN8pybind117module_23create_extension_moduleEPKcS2_P11PyModuleDef(ptr dead_on_unwind writable sret(%"class.pybind11::module_") align 8 %5, ptr noundef @.str.6, ptr noundef null, ptr noundef @_ZL48pybind11_module_def_eigen_tensor_avoid_stl_array)
  invoke void @_ZL42pybind11_init_eigen_tensor_avoid_stl_arrayRN8pybind117module_E(ptr noundef nonnull align 8 dereferenceable(8) %5)
          to label %41 unwind label %45

41:                                               ; preds = %39
  %42 = invoke noundef nonnull align 8 dereferenceable(8) ptr @_ZN8pybind116handle3ptrEv(ptr noundef nonnull align 8 dereferenceable(8) %5)
          to label %43 unwind label %45

43:                                               ; preds = %41
  %44 = load ptr, ptr %42, align 8
  store ptr %44, ptr %1, align 8
  store i32 1, ptr %8, align 4
  br label %90

45:                                               ; preds = %41, %39
  %46 = landingpad { ptr, i32 }
          cleanup
          catch ptr @_ZTIN8pybind1117error_already_setE
          catch ptr @_ZTISt9exception
  %47 = extractvalue { ptr, i32 } %46, 0
  store ptr %47, ptr %6, align 8
  %48 = extractvalue { ptr, i32 } %46, 1
  store i32 %48, ptr %7, align 4
  br label %49

49:                                               ; preds = %45
  %50 = load i32, ptr %7, align 4
  %51 = call i32 @llvm.eh.typeid.for(ptr @_ZTIN8pybind1117error_already_setE) #16
  %52 = icmp eq i32 %50, %51
  br i1 %52, label %53, label %59

53:                                               ; preds = %49
  %54 = load ptr, ptr %6, align 8
  %55 = call ptr @__cxa_begin_catch(ptr %54) #16
  store ptr %55, ptr %11, align 8
  %56 = load ptr, ptr %11, align 8
  %57 = load ptr, ptr @PyExc_ImportError, align 8
  invoke void @_ZN8pybind1110raise_fromERNS_17error_already_setEP7_objectPKc(ptr noundef nonnull align 8 dereferenceable(24) %56, ptr noundef %57, ptr noundef @.str.7)
          to label %58 unwind label %83

58:                                               ; preds = %53
  store ptr null, ptr %1, align 8
  store i32 1, ptr %8, align 4
  invoke void @__cxa_end_catch()
          to label %87 unwind label %78

59:                                               ; preds = %49
  %60 = call i32 @llvm.eh.typeid.for(ptr @_ZTISt9exception) #16
  %61 = icmp eq i32 %50, %60
  br i1 %61, label %62, label %91

62:                                               ; preds = %59
  %63 = load ptr, ptr %6, align 8
  %64 = call ptr @__cxa_begin_catch(ptr %63) #16
  store ptr %64, ptr %9, align 8
  %65 = load ptr, ptr @PyExc_ImportError, align 8
  invoke void @_ZN8pybind116handleC2IP7_objectTnNSt9enable_ifIXsr6detail25is_pyobj_ptr_or_nullptr_tIT_EE5valueEiE4typeELi0EEES5_(ptr noundef nonnull align 8 dereferenceable(8) %10, ptr noundef %65)
          to label %66 unwind label %73

66:                                               ; preds = %62
  %67 = load ptr, ptr %9, align 8
  %68 = load ptr, ptr %67, align 8
  %69 = getelementptr inbounds ptr, ptr %68, i64 2
  %70 = load ptr, ptr %69, align 8
  %71 = call noundef ptr %70(ptr noundef nonnull align 8 dereferenceable(8) %67) #16
  invoke void @_ZN8pybind119set_errorERKNS_6handleEPKc(ptr noundef nonnull align 8 dereferenceable(8) %10, ptr noundef %71)
          to label %72 unwind label %73

72:                                               ; preds = %66
  store ptr null, ptr %1, align 8
  store i32 1, ptr %8, align 4
  invoke void @__cxa_end_catch()
          to label %77 unwind label %78

73:                                               ; preds = %66, %62
  %74 = landingpad { ptr, i32 }
          cleanup
  %75 = extractvalue { ptr, i32 } %74, 0
  store ptr %75, ptr %6, align 8
  %76 = extractvalue { ptr, i32 } %74, 1
  store i32 %76, ptr %7, align 4
  invoke void @__cxa_end_catch()
          to label %82 unwind label %99

77:                                               ; preds = %72
  br label %90

78:                                               ; preds = %72, %58
  %79 = landingpad { ptr, i32 }
          cleanup
  %80 = extractvalue { ptr, i32 } %79, 0
  store ptr %80, ptr %6, align 8
  %81 = extractvalue { ptr, i32 } %79, 1
  store i32 %81, ptr %7, align 4
  br label %91

82:                                               ; preds = %73
  br label %91

83:                                               ; preds = %53
  %84 = landingpad { ptr, i32 }
          cleanup
  %85 = extractvalue { ptr, i32 } %84, 0
  store ptr %85, ptr %6, align 8
  %86 = extractvalue { ptr, i32 } %84, 1
  store i32 %86, ptr %7, align 4
  invoke void @__cxa_end_catch()
          to label %88 unwind label %99

87:                                               ; preds = %58
  br label %90

88:                                               ; preds = %83
  br label %91

89:                                               ; No predecessors!
  call void @llvm.trap()
  unreachable

90:                                               ; preds = %87, %77, %43
  call void @_ZN8pybind117module_D2Ev(ptr noundef nonnull align 8 dereferenceable(8) %5) #16
  br label %92

91:                                               ; preds = %88, %82, %78, %59
  call void @_ZN8pybind117module_D2Ev(ptr noundef nonnull align 8 dereferenceable(8) %5) #16
  br label %94

92:                                               ; preds = %90, %34
  %93 = load ptr, ptr %1, align 8
  ret ptr %93

94:                                               ; preds = %91
  %95 = load ptr, ptr %6, align 8
  %96 = load i32, ptr %7, align 4
  %97 = insertvalue { ptr, i32 } poison, ptr %95, 0
  %98 = insertvalue { ptr, i32 } %97, i32 %96, 1
  resume { ptr, i32 } %98

99:                                               ; preds = %83, %73
  %100 = landingpad { ptr, i32 }
          catch ptr null
  %101 = extractvalue { ptr, i32 } %100, 0
  call void @__clang_call_terminate(ptr %101) #23
  unreachable
}