; Function Attrs: mustprogress uwtable
define ptr @PyInit_eigen_tensor_avoid_stl_array() local_unnamed_addr #1 personality ptr @__gxx_personality_v0 {
  %1 = alloca %"class.pybind11::module_", align 8
  %2 = tail call ptr @Py_GetVersion()
  %3 = tail call i32 @strncmp(ptr noundef nonnull dereferenceable(1) %2, ptr noundef nonnull dereferenceable(5) @.str.4, i64 noundef 4) #29
  %.not = icmp eq i32 %3, 0
  br i1 %.not, label %4, label %8

4:                                                ; preds = %0
  %5 = getelementptr inbounds i8, ptr %2, i64 4
  %6 = load i8, ptr %5, align 1
  %7 = add i8 %6, -48
  %or.cond = icmp ult i8 %7, 10
  br i1 %or.cond, label %8, label %11

8:                                                ; preds = %4, %0
  %9 = load ptr, ptr @PyExc_ImportError, align 8
  %10 = tail call ptr (ptr, ptr, ...) @PyErr_Format(ptr noundef %9, ptr noundef nonnull @.str.5, ptr noundef nonnull @.str.4, ptr noundef %2)
  br label %_ZN8pybind117module_D2Ev.exit

11:                                               ; preds = %4
  %12 = tail call noundef nonnull align 8 dereferenceable(472) ptr @_ZN8pybind116detail13get_internalsEv()
  call void @_ZN8pybind117module_23create_extension_moduleEPKcS2_P11PyModuleDef(ptr dead_on_unwind nonnull writable sret(%"class.pybind11::module_") align 8 %1, ptr noundef nonnull @.str.6, ptr noundef null, ptr noundef nonnull @_ZL48pybind11_module_def_eigen_tensor_avoid_stl_array)
  invoke void @_ZN17eigen_tensor_test11test_moduleERN8pybind117module_E(ptr noundef nonnull align 8 dereferenceable(8) %1)
          to label %_ZL42pybind11_init_eigen_tensor_avoid_stl_arrayRN8pybind117module_E.exit unwind label %14

_ZL42pybind11_init_eigen_tensor_avoid_stl_arrayRN8pybind117module_E.exit: ; preds = %11
  %13 = load ptr, ptr %1, align 8
  br label %41

14:                                               ; preds = %11
  %15 = landingpad { ptr, i32 }
          cleanup
          catch ptr @_ZTIN8pybind1117error_already_setE
          catch ptr @_ZTISt9exception
  %16 = extractvalue { ptr, i32 } %15, 0
  %17 = extractvalue { ptr, i32 } %15, 1
  %18 = call i32 @llvm.eh.typeid.for(ptr nonnull @_ZTIN8pybind1117error_already_setE) #25
  %19 = icmp eq i32 %17, %18
  br i1 %19, label %20, label %25

20:                                               ; preds = %14
  %21 = call ptr @__cxa_begin_catch(ptr %16) #25
  %22 = load ptr, ptr @PyExc_ImportError, align 8
  %23 = getelementptr inbounds i8, ptr %21, i64 8
  %24 = load ptr, ptr %23, align 8
  invoke void @_ZN8pybind116detail25error_fetch_and_normalize7restoreEv(ptr noundef nonnull align 8 dereferenceable(58) %24)
          to label %.noexc unwind label %39

.noexc:                                           ; preds = %20
  invoke void @_ZN8pybind1110raise_fromEP7_objectPKc(ptr noundef %22, ptr noundef nonnull @.str.7)
          to label %_ZN8pybind119set_errorERKNS_6handleEPKc.exit.invoke unwind label %39

25:                                               ; preds = %14
  %26 = call i32 @llvm.eh.typeid.for(ptr nonnull @_ZTISt9exception) #25
  %27 = icmp eq i32 %17, %26
  br i1 %27, label %28, label %50

28:                                               ; preds = %25
  %29 = call ptr @__cxa_begin_catch(ptr %16) #25
  %30 = load ptr, ptr @PyExc_ImportError, align 8
  %31 = load ptr, ptr %29, align 8
  %32 = getelementptr inbounds i8, ptr %31, i64 16
  %33 = load ptr, ptr %32, align 8
  %34 = call noundef ptr %33(ptr noundef nonnull align 8 dereferenceable(8) %29) #25
  invoke void @PyErr_SetString(ptr noundef %30, ptr noundef %34)
          to label %_ZN8pybind119set_errorERKNS_6handleEPKc.exit.invoke unwind label %35

_ZN8pybind119set_errorERKNS_6handleEPKc.exit.invoke: ; preds = %28, %.noexc
  invoke void @__cxa_end_catch()
          to label %thread-pre-split unwind label %37

35:                                               ; preds = %28
  %36 = landingpad { ptr, i32 }
          cleanup
  invoke void @__cxa_end_catch()
          to label %50 unwind label %51

37:                                               ; preds = %_ZN8pybind119set_errorERKNS_6handleEPKc.exit.invoke
  %38 = landingpad { ptr, i32 }
          cleanup
  br label %50

39:                                               ; preds = %.noexc, %20
  %40 = landingpad { ptr, i32 }
          cleanup
  invoke void @__cxa_end_catch()
          to label %50 unwind label %51

thread-pre-split:                                 ; preds = %_ZN8pybind119set_errorERKNS_6handleEPKc.exit.invoke
  %.pr = load ptr, ptr %1, align 8
  br label %41

41:                                               ; preds = %thread-pre-split, %_ZL42pybind11_init_eigen_tensor_avoid_stl_arrayRN8pybind117module_E.exit
  %42 = phi ptr [ %.pr, %thread-pre-split ], [ %13, %_ZL42pybind11_init_eigen_tensor_avoid_stl_arrayRN8pybind117module_E.exit ]
  %.0 = phi ptr [ null, %thread-pre-split ], [ %13, %_ZL42pybind11_init_eigen_tensor_avoid_stl_arrayRN8pybind117module_E.exit ]
  %.not.i.i.i.i = icmp eq ptr %42, null
  br i1 %.not.i.i.i.i, label %_ZN8pybind117module_D2Ev.exit, label %43

43:                                               ; preds = %41
  %44 = load i64, ptr %42, align 8
  %45 = add nsw i64 %44, -1
  store i64 %45, ptr %42, align 8
  %.not.i.i.i.i.i = icmp eq i64 %45, 0
  br i1 %.not.i.i.i.i.i, label %46, label %_ZN8pybind117module_D2Ev.exit

46:                                               ; preds = %43
  invoke void @_Py_Dealloc(ptr noundef nonnull %42)
          to label %_ZN8pybind117module_D2Ev.exit unwind label %47

47:                                               ; preds = %46
  %48 = landingpad { ptr, i32 }
          catch ptr null
  %49 = extractvalue { ptr, i32 } %48, 0
  call void @__clang_call_terminate(ptr %49) #26
  unreachable

50:                                               ; preds = %39, %35, %37, %25
  %.merged = phi { ptr, i32 } [ %38, %37 ], [ %40, %39 ], [ %36, %35 ], [ %15, %25 ]
  call void @_ZN8pybind117module_D2Ev(ptr noundef nonnull align 8 dereferenceable(8) %1) #25
  resume { ptr, i32 } %.merged

_ZN8pybind117module_D2Ev.exit:                    ; preds = %46, %43, %41, %8
  %.1 = phi ptr [ null, %8 ], [ %.0, %41 ], [ %.0, %43 ], [ %.0, %46 ]
  ret ptr %.1

51:                                               ; preds = %39, %35
  %52 = landingpad { ptr, i32 }
          catch ptr null
  %53 = extractvalue { ptr, i32 } %52, 0
  call void @__clang_call_terminate(ptr %53) #26
  unreachable
}